target datalayout = "e-m:e-p270:32:32-p271:32:32-p272:64:64-i64:64-i128:128-f80:128-n8:16:32:64-S128"
target triple = "x86_64-pc-linux-gnu"

%struct.PlatformTarget = type { ptr, i32, ptr, ptr, i32, i32, i32, i32, i32, i32, i32, [7 x %struct.AlignData], [7 x %struct.AlignData], [7 x %struct.AlignData], i32, i16, %union.anon.88, i8, i8, i8, i8, i8, i8, i8, i8, i8, i8, %struct.AlignData, i32, i32, i32, i32, i32, i32, i32, i32, i32, i32, i32, i32, i32, i32, i32, i32, ptr }
%union.anon.88 = type { %struct.anon.90 }
%struct.anon.90 = type { %struct.X86Features, i32, i32 }
%struct.X86Features = type { [2 x i64], ptr }
%struct.AlignData = type { i32, i32 }
%struct.Type_ = type { i32, ptr, ptr, ptr, %union.anon.85, ptr, ptr, %union.anon.87 }
%union.anon.85 = type { ptr }
%union.anon.87 = type { %struct.TypeFunction }
%struct.TypeFunction = type { ptr, ptr, ptr }
%struct.TypeArray = type { ptr, i32 }
%struct.AbiType = type { %union.anon.1 }
%union.anon.1 = type { ptr }

@platform_target = external global %struct.PlatformTarget, align 8
@type_ulong = external global ptr, align 8
@type_double = external global ptr, align 8

; Function Attrs: nounwind uwtable
define internal ptr @abi_type_get(ptr noundef %0) #0 {
  %2 = alloca %struct.AbiType, align 8
  %3 = alloca ptr, align 8
  store ptr %0, ptr %3, align 8
  %4 = getelementptr inbounds %struct.AbiType, ptr %2, i32 0, i32 0
  %5 = load ptr, ptr %3, align 8
  store ptr %5, ptr %4, align 8
  %6 = getelementptr inbounds %struct.AbiType, ptr %2, i32 0, i32 0
  %7 = getelementptr inbounds %union.anon.1, ptr %6, i32 0, i32 0
  %8 = load ptr, ptr %7, align 8
  ret ptr %8
}

; Function Attrs: nounwind uwtable
define internal ptr @x64_get_byte_vector_type(ptr noundef %0) #0 {
  %2 = alloca %struct.AbiType, align 8
  %3 = alloca ptr, align 8
  %4 = alloca ptr, align 8
  %5 = alloca ptr, align 8
  %6 = alloca i32, align 4
  store ptr %0, ptr %3, align 8
  %7 = load ptr, ptr %3, align 8
  %8 = call ptr @type_abi_find_single_struct_element(ptr noundef %7)
  store ptr %8, ptr %4, align 8
  %9 = load ptr, ptr %4, align 8
  %10 = icmp ne ptr %9, null
  br i1 %10, label %11, label %13

11:                                               ; preds = %1
  %12 = load ptr, ptr %4, align 8
  store ptr %12, ptr %3, align 8
  br label %13

13:                                               ; preds = %11, %1
  %14 = load ptr, ptr %3, align 8
  %15 = call ptr @type_lowering(ptr noundef %14)
  store ptr %15, ptr %3, align 8
  %16 = load ptr, ptr %3, align 8
  %17 = getelementptr inbounds %struct.Type_, ptr %16, i32 0, i32 0
  %18 = load i32, ptr %17, align 8
  %19 = icmp eq i32 %18, 37
  br i1 %19, label %20, label %48

20:                                               ; preds = %13
  %21 = load ptr, ptr %3, align 8
  %22 = getelementptr inbounds %struct.Type_, ptr %21, i32 0, i32 7
  %23 = getelementptr inbounds %struct.TypeArray, ptr %22, i32 0, i32 0
  %24 = load ptr, ptr %23, align 8
  %25 = getelementptr inbounds %struct.Type_, ptr %24, i32 0, i32 1
  %26 = load ptr, ptr %25, align 8
  store ptr %26, ptr %5, align 8
  %27 = load i32, ptr getelementptr inbounds (%struct.anon.90, ptr getelementptr inbounds (%struct.PlatformTarget, ptr @platform_target, i32 0, i32 16), i32 0, i32 1), align 8
  %28 = lshr i32 %27, 19
  %29 = and i32 %28, 1
  %30 = trunc i32 %29 to i1
  br i1 %30, label %31, label %43

31:                                               ; preds = %20
  %32 = load ptr, ptr %5, align 8
  %33 = call zeroext i1 @type_is_int128(ptr noundef %32)
  br i1 %33, label %34, label %43

34:                                               ; preds = %31
  %35 = load ptr, ptr @type_ulong, align 8
  %36 = load ptr, ptr %3, align 8
  %37 = call i32 @type_size(ptr noundef %36)
  %38 = udiv i32 %37, 8
  %39 = call ptr @type_get_vector(ptr noundef %35, i32 noundef %38)
  %40 = call ptr @abi_type_get(ptr noundef %39)
  %41 = getelementptr inbounds %struct.AbiType, ptr %2, i32 0, i32 0
  %42 = getelementptr inbounds %union.anon.1, ptr %41, i32 0, i32 0
  store ptr %40, ptr %42, align 8
  br label %68

43:                                               ; preds = %31, %20
  %44 = load ptr, ptr %3, align 8
  %45 = call ptr @abi_type_get(ptr noundef %44)
  %46 = getelementptr inbounds %struct.AbiType, ptr %2, i32 0, i32 0
  %47 = getelementptr inbounds %union.anon.1, ptr %46, i32 0, i32 0
  store ptr %45, ptr %47, align 8
  br label %68

48:                                               ; preds = %13
  %49 = load ptr, ptr %3, align 8
  %50 = getelementptr inbounds %struct.Type_, ptr %49, i32 0, i32 0
  %51 = load i32, ptr %50, align 8
  %52 = icmp eq i32 %51, 17
  br i1 %52, label %53, label %58

53:                                               ; preds = %48
  %54 = load ptr, ptr %3, align 8
  %55 = call ptr @abi_type_get(ptr noundef %54)
  %56 = getelementptr inbounds %struct.AbiType, ptr %2, i32 0, i32 0
  %57 = getelementptr inbounds %union.anon.1, ptr %56, i32 0, i32 0
  store ptr %55, ptr %57, align 8
  br label %68

58:                                               ; preds = %48
  %59 = load ptr, ptr %3, align 8
  %60 = call i32 @type_size(ptr noundef %59)
  store i32 %60, ptr %6, align 4
  %61 = load ptr, ptr @type_double, align 8
  %62 = load i32, ptr %6, align 4
  %63 = udiv i32 %62, 8
  %64 = call ptr @type_get_vector(ptr noundef %61, i32 noundef %63)
  %65 = call ptr @abi_type_get(ptr noundef %64)
  %66 = getelementptr inbounds %struct.AbiType, ptr %2, i32 0, i32 0
  %67 = getelementptr inbounds %union.anon.1, ptr %66, i32 0, i32 0
  store ptr %65, ptr %67, align 8
  br label %68

68:                                               ; preds = %58, %53, %43, %34
  %69 = getelementptr inbounds %struct.AbiType, ptr %2, i32 0, i32 0
  %70 = getelementptr inbounds %union.anon.1, ptr %69, i32 0, i32 0
  %71 = load ptr, ptr %70, align 8
  ret ptr %71
}