; Function Attrs: nounwind uwtable
define internal fastcc ptr @x64_get_byte_vector_type(ptr noundef %0) unnamed_addr #1 {
  %2 = tail call ptr @type_abi_find_single_struct_element(ptr noundef %0) #7
  %.not = icmp eq ptr %2, null
  %spec.select = select i1 %.not, ptr %0, ptr %2
  %3 = tail call fastcc ptr @type_lowering(ptr noundef %spec.select)
  %4 = load i32, ptr %3, align 8
  switch i32 %4, label %17 [
    i32 37, label %5
    i32 17, label %22
  ]

5:                                                ; preds = %1
  %6 = load i32, ptr getelementptr inbounds (%struct.PlatformTarget, ptr @platform_target, i64 0, i32 16, i32 0, i32 1), align 8
  %7 = and i32 %6, 524288
  %.not14 = icmp eq i32 %7, 0
  br i1 %.not14, label %22, label %8

8:                                                ; preds = %5
  %9 = getelementptr inbounds i8, ptr %3, i64 56
  %10 = load ptr, ptr %9, align 8
  %11 = getelementptr inbounds i8, ptr %10, i64 8
  %12 = load ptr, ptr %11, align 8
  %13 = tail call zeroext i1 @type_is_int128(ptr noundef %12) #7
  br i1 %13, label %14, label %22

14:                                               ; preds = %8
  %15 = load ptr, ptr @type_ulong, align 8
  %16 = tail call i32 @type_size(ptr noundef nonnull %3) #7
  br label %.sink.split

17:                                               ; preds = %1
  %18 = tail call i32 @type_size(ptr noundef nonnull %3) #7
  %19 = load ptr, ptr @type_double, align 8
  br label %.sink.split

.sink.split:                                      ; preds = %14, %17
  %.sink16 = phi i32 [ %18, %17 ], [ %16, %14 ]
  %.sink = phi ptr [ %19, %17 ], [ %15, %14 ]
  %20 = lshr i32 %.sink16, 3
  %21 = tail call ptr @type_get_vector(ptr noundef %.sink, i32 noundef %20) #7
  br label %22

22:                                               ; preds = %.sink.split, %1, %5, %8
  %.sroa.0.0 = phi ptr [ %3, %8 ], [ %3, %5 ], [ %3, %1 ], [ %21, %.sink.split ]
  ret ptr %.sroa.0.0
}